; Function Attrs: mustprogress uwtable
define hidden noundef zeroext i1 @_ZN4cvc58internal6theory7strings11SolverState16isEqualEmptyWordENS0_12NodeTemplateILb1EEERS5_(ptr noundef nonnull align 8 dereferenceable(560) %0, ptr noundef readonly captures(none) %1, ptr noundef nonnull align 8 captures(none) dereferenceable(8) %2) local_unnamed_addr #3 align 2 personality ptr @__gxx_personality_v0 {
  %4 = alloca %"class.cvc5::internal::NodeTemplate", align 8
  %5 = alloca %"class.cvc5::internal::NodeTemplate.383", align 8
  %6 = alloca %"class.cvc5::internal::NodeTemplate.383", align 8
  %7 = alloca %"class.cvc5::internal::NodeTemplate.383", align 8
  call void @llvm.lifetime.start.p0(i64 8, ptr nonnull %4) #26
  call void @llvm.lifetime.start.p0(i64 8, ptr nonnull %5) #26
  %8 = load ptr, ptr %1, align 8, !tbaa !13
  store ptr %8, ptr %6, align 8, !tbaa !80
  %9 = load ptr, ptr %0, align 8, !tbaa !8
  %10 = getelementptr inbounds nuw i8, ptr %9, i64 32
  %11 = load ptr, ptr %10, align 8
  invoke void %11(ptr dead_on_unwind nonnull writable sret(%"class.cvc5::internal::NodeTemplate.383") align 8 %5, ptr noundef nonnull align 8 dereferenceable(160) %0, ptr noundef nonnull %6)
          to label %12 unwind label %63

12:                                               ; preds = %3
  %13 = load ptr, ptr %5, align 8, !tbaa !80
  store ptr %13, ptr %4, align 8, !tbaa !13
  %14 = load i64, ptr %13, align 8
  %15 = lshr i64 %14, 40
  %16 = trunc nuw nsw i64 %15 to i32
  %17 = and i32 %16, 1048575
  %18 = icmp samesign ult i32 %17, 1048574
  br i1 %18, label %19, label %24, !prof !53

19:                                               ; preds = %12
  %20 = add i64 %14, 1099511627776
  %21 = and i64 %20, 1152920405095219200
  %22 = and i64 %14, -1152920405095219201
  %23 = or disjoint i64 %21, %22
  store i64 %23, ptr %13, align 8
  br label %_ZN4cvc58internal12NodeTemplateILb1EEC2ERKNS1_ILb0EEE.exit

24:                                               ; preds = %12
  %25 = icmp eq i32 %17, 1048574
  br i1 %25, label %26, label %_ZN4cvc58internal12NodeTemplateILb1EEC2ERKNS1_ILb0EEE.exit, !prof !52

26:                                               ; preds = %24
  %27 = or i64 %14, 1152920405095219200
  store i64 %27, ptr %13, align 8
  invoke void @_ZN4cvc58internal4expr9NodeValue20markRefCountMaxedOutEv(ptr noundef nonnull align 8 dereferenceable(24) %13)
          to label %_ZN4cvc58internal12NodeTemplateILb1EEC2ERKNS1_ILb0EEE.exit unwind label %65

_ZN4cvc58internal12NodeTemplateILb1EEC2ERKNS1_ILb0EEE.exit: ; preds = %24, %19, %26
  call void @llvm.lifetime.end.p0(i64 8, ptr nonnull %5) #26
  %28 = invoke noundef zeroext i1 @_ZNK4cvc58internal12NodeTemplateILb1EE7isConstEv(ptr noundef nonnull align 8 dereferenceable(8) %4)
          to label %29 unwind label %68

29:                                               ; preds = %_ZN4cvc58internal12NodeTemplateILb1EEC2ERKNS1_ILb0EEE.exit
  br i1 %28, label %30, label %_ZN4cvc58internal12NodeTemplateILb1EEaSERKS2_.exit

30:                                               ; preds = %29
  %31 = load ptr, ptr %4, align 8, !tbaa !13
  store ptr %31, ptr %7, align 8, !tbaa !80
  %32 = invoke noundef i64 @_ZN4cvc58internal6theory7strings4Word9getLengthENS0_12NodeTemplateILb0EEE(ptr noundef nonnull %7)
          to label %33 unwind label %70

33:                                               ; preds = %30
  %34 = icmp eq i64 %32, 0
  br i1 %34, label %35, label %_ZN4cvc58internal12NodeTemplateILb1EEaSERKS2_.exit

35:                                               ; preds = %33
  %36 = load ptr, ptr %2, align 8, !tbaa !13
  %37 = load ptr, ptr %4, align 8, !tbaa !13
  %.not.i = icmp eq ptr %36, %37
  br i1 %.not.i, label %_ZN4cvc58internal12NodeTemplateILb1EEaSERKS2_.exit, label %38, !prof !52

38:                                               ; preds = %35
  %39 = load i64, ptr %36, align 8
  %40 = and i64 %39, 1152920405095219200
  %.not.i.i = icmp eq i64 %40, 1152920405095219200
  br i1 %.not.i.i, label %_ZN4cvc58internal4expr9NodeValue3decEv.exit.i, label %41, !prof !52

41:                                               ; preds = %38
  %42 = add i64 %39, 1152920405095219200
  %43 = and i64 %42, 1152920405095219200
  %44 = and i64 %39, -1152920405095219201
  %45 = or disjoint i64 %43, %44
  store i64 %45, ptr %36, align 8
  %46 = icmp eq i64 %43, 0
  br i1 %46, label %47, label %_ZN4cvc58internal4expr9NodeValue3decEv.exit.i, !prof !52

47:                                               ; preds = %41
  invoke void @_ZN4cvc58internal4expr9NodeValue15markForDeletionEv(ptr noundef nonnull align 8 dereferenceable(24) %36)
          to label %_ZN4cvc58internal4expr9NodeValue3decEv.exit.i unwind label %68

_ZN4cvc58internal4expr9NodeValue3decEv.exit.i:    ; preds = %47, %41, %38
  %48 = load ptr, ptr %4, align 8, !tbaa !13
  store ptr %48, ptr %2, align 8, !tbaa !13
  %49 = load i64, ptr %48, align 8
  %50 = lshr i64 %49, 40
  %51 = trunc nuw nsw i64 %50 to i32
  %52 = and i32 %51, 1048575
  %53 = icmp samesign ult i32 %52, 1048574
  br i1 %53, label %54, label %59, !prof !53

54:                                               ; preds = %_ZN4cvc58internal4expr9NodeValue3decEv.exit.i
  %55 = add i64 %49, 1099511627776
  %56 = and i64 %55, 1152920405095219200
  %57 = and i64 %49, -1152920405095219201
  %58 = or disjoint i64 %56, %57
  store i64 %58, ptr %48, align 8
  br label %_ZN4cvc58internal12NodeTemplateILb1EEaSERKS2_.exit

59:                                               ; preds = %_ZN4cvc58internal4expr9NodeValue3decEv.exit.i
  %60 = icmp eq i32 %52, 1048574
  br i1 %60, label %61, label %_ZN4cvc58internal12NodeTemplateILb1EEaSERKS2_.exit, !prof !52

61:                                               ; preds = %59
  %62 = or i64 %49, 1152920405095219200
  store i64 %62, ptr %48, align 8
  invoke void @_ZN4cvc58internal4expr9NodeValue20markRefCountMaxedOutEv(ptr noundef nonnull align 8 dereferenceable(24) %48)
          to label %_ZN4cvc58internal12NodeTemplateILb1EEaSERKS2_.exit unwind label %68

63:                                               ; preds = %3
  %64 = landingpad { ptr, i32 }
          cleanup
  br label %67

65:                                               ; preds = %26
  %66 = landingpad { ptr, i32 }
          cleanup
  br label %67

67:                                               ; preds = %65, %63
  %.pn = phi { ptr, i32 } [ %66, %65 ], [ %64, %63 ]
  call void @llvm.lifetime.end.p0(i64 8, ptr nonnull %5) #26
  br label %86

68:                                               ; preds = %61, %47, %_ZN4cvc58internal12NodeTemplateILb1EEC2ERKNS1_ILb0EEE.exit
  %69 = landingpad { ptr, i32 }
          cleanup
  br label %85

70:                                               ; preds = %30
  %71 = landingpad { ptr, i32 }
          cleanup
  br label %85

_ZN4cvc58internal12NodeTemplateILb1EEaSERKS2_.exit: ; preds = %59, %54, %35, %61, %29, %33
  %.07 = phi i1 [ false, %33 ], [ false, %29 ], [ true, %61 ], [ true, %35 ], [ true, %54 ], [ true, %59 ]
  %72 = load ptr, ptr %4, align 8, !tbaa !13
  %73 = load i64, ptr %72, align 8
  %74 = and i64 %73, 1152920405095219200
  %.not.i.i14 = icmp eq i64 %74, 1152920405095219200
  br i1 %.not.i.i14, label %_ZN4cvc58internal12NodeTemplateILb1EED2Ev.exit, label %75, !prof !52

75:                                               ; preds = %_ZN4cvc58internal12NodeTemplateILb1EEaSERKS2_.exit
  %76 = add i64 %73, 1152920405095219200
  %77 = and i64 %76, 1152920405095219200
  %78 = and i64 %73, -1152920405095219201
  %79 = or disjoint i64 %77, %78
  store i64 %79, ptr %72, align 8
  %80 = icmp eq i64 %77, 0
  br i1 %80, label %81, label %_ZN4cvc58internal12NodeTemplateILb1EED2Ev.exit, !prof !52

81:                                               ; preds = %75
  invoke void @_ZN4cvc58internal4expr9NodeValue15markForDeletionEv(ptr noundef nonnull align 8 dereferenceable(24) %72)
          to label %_ZN4cvc58internal12NodeTemplateILb1EED2Ev.exit unwind label %82

82:                                               ; preds = %81
  %83 = landingpad { ptr, i32 }
          catch ptr null
  %84 = extractvalue { ptr, i32 } %83, 0
  call void @__clang_call_terminate(ptr %84) #28
  unreachable

_ZN4cvc58internal12NodeTemplateILb1EED2Ev.exit:   ; preds = %_ZN4cvc58internal12NodeTemplateILb1EEaSERKS2_.exit, %75, %81
  call void @llvm.lifetime.end.p0(i64 8, ptr nonnull %4) #26
  ret i1 %.07

85:                                               ; preds = %70, %68
  %.pn9 = phi { ptr, i32 } [ %69, %68 ], [ %71, %70 ]
  call void @_ZN4cvc58internal12NodeTemplateILb1EED2Ev(ptr noundef nonnull align 8 dereferenceable(8) %4) #26
  br label %86

86:                                               ; preds = %85, %67
  %.pn9.pn = phi { ptr, i32 } [ %.pn9, %85 ], [ %.pn, %67 ]
  call void @llvm.lifetime.end.p0(i64 8, ptr nonnull %4) #26
  resume { ptr, i32 } %.pn9.pn
}